target datalayout = "e-m:e-p270:32:32-p271:32:32-p272:64:64-i64:64-i128:128-f80:128-n8:16:32:64-S128"
target triple = "x86_64-pc-linux-gnu"

%struct.UFILE = type { ptr, ptr, ptr, %struct.u_localized_string, [1024 x i16], i8, i32 }
%struct.u_localized_string = type { ptr, ptr, ptr, %struct.ULocaleBundle }
%struct.ULocaleBundle = type { ptr, [5 x ptr], i8 }

; Function Attrs: mustprogress uwtable
define ptr @u_fgets_77(ptr noundef %0, i32 noundef %1, ptr noundef %2) #0 {
  %4 = alloca ptr, align 8
  %5 = alloca ptr, align 8
  %6 = alloca i32, align 4
  %7 = alloca ptr, align 8
  %8 = alloca i32, align 4
  %9 = alloca i32, align 4
  %10 = alloca ptr, align 8
  %11 = alloca ptr, align 8
  %12 = alloca ptr, align 8
  %13 = alloca i16, align 2
  %14 = alloca ptr, align 8
  %15 = alloca i32, align 4
  store ptr %0, ptr %5, align 8, !tbaa !30
  store i32 %1, ptr %6, align 4, !tbaa !31
  store ptr %2, ptr %7, align 8, !tbaa !3
  call void @llvm.lifetime.start.p0(i64 4, ptr %8) #10
  call void @llvm.lifetime.start.p0(i64 4, ptr %9) #10
  call void @llvm.lifetime.start.p0(i64 8, ptr %10) #10
  call void @llvm.lifetime.start.p0(i64 8, ptr %11) #10
  call void @llvm.lifetime.start.p0(i64 8, ptr %12) #10
  call void @llvm.lifetime.start.p0(i64 2, ptr %13) #10
  store i16 0, ptr %13, align 2, !tbaa !40
  call void @llvm.lifetime.start.p0(i64 8, ptr %14) #10
  %16 = load i32, ptr %6, align 4, !tbaa !31
  %17 = icmp sle i32 %16, 0
  br i1 %17, label %18, label %19

18:                                               ; preds = %3
  store ptr null, ptr %4, align 8
  store i32 1, ptr %15, align 4
  br label %225

19:                                               ; preds = %3
  %20 = load ptr, ptr %7, align 8, !tbaa !3
  %21 = getelementptr inbounds nuw %struct.UFILE, ptr %20, i32 0, i32 3
  store ptr %21, ptr %14, align 8, !tbaa !49
  %22 = load ptr, ptr %14, align 8, !tbaa !49
  %23 = getelementptr inbounds nuw %struct.u_localized_string, ptr %22, i32 0, i32 0
  %24 = load ptr, ptr %23, align 8, !tbaa !52
  %25 = load ptr, ptr %14, align 8, !tbaa !49
  %26 = getelementptr inbounds nuw %struct.u_localized_string, ptr %25, i32 0, i32 1
  %27 = load ptr, ptr %26, align 8, !tbaa !51
  %28 = icmp uge ptr %24, %27
  br i1 %28, label %29, label %31

29:                                               ; preds = %19
  %30 = load ptr, ptr %7, align 8, !tbaa !3
  call void @_Z26ufile_fill_uchar_buffer_77P5UFILE(ptr noundef %30)
  br label %31

31:                                               ; preds = %29, %19
  %32 = load i32, ptr %6, align 4, !tbaa !31
  %33 = add nsw i32 %32, -1
  store i32 %33, ptr %6, align 4, !tbaa !31
  %34 = load ptr, ptr %14, align 8, !tbaa !49
  %35 = getelementptr inbounds nuw %struct.u_localized_string, ptr %34, i32 0, i32 1
  %36 = load ptr, ptr %35, align 8, !tbaa !51
  %37 = load ptr, ptr %14, align 8, !tbaa !49
  %38 = getelementptr inbounds nuw %struct.u_localized_string, ptr %37, i32 0, i32 0
  %39 = load ptr, ptr %38, align 8, !tbaa !52
  %40 = ptrtoint ptr %36 to i64
  %41 = ptrtoint ptr %39 to i64
  %42 = sub i64 %40, %41
  %43 = sdiv exact i64 %42, 2
  %44 = trunc i64 %43 to i32
  store i32 %44, ptr %8, align 4, !tbaa !31
  %45 = load i32, ptr %8, align 4, !tbaa !31
  %46 = icmp eq i32 %45, 0
  br i1 %46, label %47, label %48

47:                                               ; preds = %31
  store ptr null, ptr %4, align 8
  store i32 1, ptr %15, align 4
  br label %225

48:                                               ; preds = %31
  store i32 0, ptr %9, align 4, !tbaa !31
  %49 = load ptr, ptr %5, align 8, !tbaa !30
  store ptr %49, ptr %12, align 8, !tbaa !30
  store i16 0, ptr %13, align 2, !tbaa !40
  br label %50

50:                                               ; preds = %209, %48
  %51 = load i32, ptr %8, align 4, !tbaa !31
  %52 = icmp sgt i32 %51, 0
  br i1 %52, label %53, label %57

53:                                               ; preds = %50
  %54 = load i32, ptr %9, align 4, !tbaa !31
  %55 = load i32, ptr %6, align 4, !tbaa !31
  %56 = icmp slt i32 %54, %55
  br label %57

57:                                               ; preds = %53, %50
  %58 = phi i1 [ false, %50 ], [ %56, %53 ]
  br i1 %58, label %59, label %222

59:                                               ; preds = %57
  %60 = load ptr, ptr %14, align 8, !tbaa !49
  %61 = getelementptr inbounds nuw %struct.u_localized_string, ptr %60, i32 0, i32 0
  %62 = load ptr, ptr %61, align 8, !tbaa !52
  store ptr %62, ptr %10, align 8, !tbaa !30
  %63 = load i32, ptr %8, align 4, !tbaa !31
  %64 = load i32, ptr %6, align 4, !tbaa !31
  %65 = load i32, ptr %9, align 4, !tbaa !31
  %66 = sub nsw i32 %64, %65
  %67 = icmp slt i32 %63, %66
  br i1 %67, label %68, label %72

68:                                               ; preds = %59
  %69 = load ptr, ptr %14, align 8, !tbaa !49
  %70 = getelementptr inbounds nuw %struct.u_localized_string, ptr %69, i32 0, i32 1
  %71 = load ptr, ptr %70, align 8, !tbaa !51
  store ptr %71, ptr %11, align 8, !tbaa !30
  br label %79

72:                                               ; preds = %59
  %73 = load ptr, ptr %10, align 8, !tbaa !30
  %74 = load i32, ptr %6, align 4, !tbaa !31
  %75 = load i32, ptr %9, align 4, !tbaa !31
  %76 = sub nsw i32 %74, %75
  %77 = sext i32 %76 to i64
  %78 = getelementptr inbounds i16, ptr %73, i64 %77
  store ptr %78, ptr %11, align 8, !tbaa !30
  br label %79

79:                                               ; preds = %72, %68
  %80 = load i16, ptr %13, align 2, !tbaa !40
  %81 = icmp ne i16 %80, 0
  br i1 %81, label %174, label %82

82:                                               ; preds = %79
  br label %83

83:                                               ; preds = %117, %82
  %84 = load ptr, ptr %10, align 8, !tbaa !30
  %85 = load ptr, ptr %11, align 8, !tbaa !30
  %86 = icmp ult ptr %84, %85
  br i1 %86, label %87, label %115

87:                                               ; preds = %83
  %88 = load ptr, ptr %10, align 8, !tbaa !30
  %89 = load i16, ptr %88, align 2, !tbaa !40
  %90 = zext i16 %89 to i32
  %91 = icmp sle i32 10, %90
  br i1 %91, label %92, label %97

92:                                               ; preds = %87
  %93 = load ptr, ptr %10, align 8, !tbaa !30
  %94 = load i16, ptr %93, align 2, !tbaa !40
  %95 = zext i16 %94 to i32
  %96 = icmp sle i32 %95, 13
  br i1 %96, label %112, label %97

97:                                               ; preds = %92, %87
  %98 = load ptr, ptr %10, align 8, !tbaa !30
  %99 = load i16, ptr %98, align 2, !tbaa !40
  %100 = zext i16 %99 to i32
  %101 = icmp eq i32 %100, 133
  br i1 %101, label %112, label %102

102:                                              ; preds = %97
  %103 = load ptr, ptr %10, align 8, !tbaa !30
  %104 = load i16, ptr %103, align 2, !tbaa !40
  %105 = zext i16 %104 to i32
  %106 = icmp eq i32 %105, 8232
  br i1 %106, label %112, label %107

107:                                              ; preds = %102
  %108 = load ptr, ptr %10, align 8, !tbaa !30
  %109 = load i16, ptr %108, align 2, !tbaa !40
  %110 = zext i16 %109 to i32
  %111 = icmp eq i32 %110, 8233
  br label %112

112:                                              ; preds = %107, %102, %97, %92
  %113 = phi i1 [ true, %102 ], [ true, %97 ], [ true, %92 ], [ %111, %107 ]
  %114 = xor i1 %113, true
  br label %115

115:                                              ; preds = %112, %83
  %116 = phi i1 [ false, %83 ], [ %114, %112 ]
  br i1 %116, label %117, label %125

117:                                              ; preds = %115
  %118 = load i32, ptr %9, align 4, !tbaa !31
  %119 = add nsw i32 %118, 1
  store i32 %119, ptr %9, align 4, !tbaa !31
  %120 = load ptr, ptr %10, align 8, !tbaa !30
  %121 = getelementptr inbounds nuw i16, ptr %120, i32 1
  store ptr %121, ptr %10, align 8, !tbaa !30
  %122 = load i16, ptr %120, align 2, !tbaa !40
  %123 = load ptr, ptr %12, align 8, !tbaa !30
  %124 = getelementptr inbounds nuw i16, ptr %123, i32 1
  store ptr %124, ptr %12, align 8, !tbaa !30
  store i16 %122, ptr %123, align 2, !tbaa !40
  br label %83, !llvm.loop !55

125:                                              ; preds = %115
  %126 = load ptr, ptr %10, align 8, !tbaa !30
  %127 = load ptr, ptr %11, align 8, !tbaa !30
  %128 = icmp ult ptr %126, %127
  br i1 %128, label %129, label %173

129:                                              ; preds = %125
  %130 = load ptr, ptr %10, align 8, !tbaa !30
  %131 = load i16, ptr %130, align 2, !tbaa !40
  %132 = zext i16 %131 to i32
  %133 = icmp sle i32 10, %132
  br i1 %133, label %134, label %139

134:                                              ; preds = %129
  %135 = load ptr, ptr %10, align 8, !tbaa !30
  %136 = load i16, ptr %135, align 2, !tbaa !40
  %137 = zext i16 %136 to i32
  %138 = icmp sle i32 %137, 13
  br i1 %138, label %154, label %139

139:                                              ; preds = %134, %129
  %140 = load ptr, ptr %10, align 8, !tbaa !30
  %141 = load i16, ptr %140, align 2, !tbaa !40
  %142 = zext i16 %141 to i32
  %143 = icmp eq i32 %142, 133
  br i1 %143, label %154, label %144

144:                                              ; preds = %139
  %145 = load ptr, ptr %10, align 8, !tbaa !30
  %146 = load i16, ptr %145, align 2, !tbaa !40
  %147 = zext i16 %146 to i32
  %148 = icmp eq i32 %147, 8232
  br i1 %148, label %154, label %149

149:                                              ; preds = %144
  %150 = load ptr, ptr %10, align 8, !tbaa !30
  %151 = load i16, ptr %150, align 2, !tbaa !40
  %152 = zext i16 %151 to i32
  %153 = icmp eq i32 %152, 8233
  br label %154

154:                                              ; preds = %149, %144, %139, %134
  %155 = phi i1 [ true, %144 ], [ true, %139 ], [ true, %134 ], [ %153, %149 ]
  br i1 %155, label %156, label %173

156:                                              ; preds = %154
  %157 = load ptr, ptr %10, align 8, !tbaa !30
  %158 = load i16, ptr %157, align 2, !tbaa !40
  %159 = zext i16 %158 to i32
  %160 = icmp eq i32 %159, 13
  br i1 %160, label %161, label %164

161:                                              ; preds = %156
  %162 = load ptr, ptr %10, align 8, !tbaa !30
  %163 = load i16, ptr %162, align 2, !tbaa !40
  store i16 %163, ptr %13, align 2, !tbaa !40
  br label %165

164:                                              ; preds = %156
  store i16 1, ptr %13, align 2, !tbaa !40
  br label %165

165:                                              ; preds = %164, %161
  %166 = load i32, ptr %9, align 4, !tbaa !31
  %167 = add nsw i32 %166, 1
  store i32 %167, ptr %9, align 4, !tbaa !31
  %168 = load ptr, ptr %10, align 8, !tbaa !30
  %169 = getelementptr inbounds nuw i16, ptr %168, i32 1
  store ptr %169, ptr %10, align 8, !tbaa !30
  %170 = load i16, ptr %168, align 2, !tbaa !40
  %171 = load ptr, ptr %12, align 8, !tbaa !30
  %172 = getelementptr inbounds nuw i16, ptr %171, i32 1
  store ptr %172, ptr %12, align 8, !tbaa !30
  store i16 %170, ptr %171, align 2, !tbaa !40
  br label %173

173:                                              ; preds = %165, %154, %125
  br label %174

174:                                              ; preds = %173, %79
  %175 = load ptr, ptr %10, align 8, !tbaa !30
  %176 = load ptr, ptr %11, align 8, !tbaa !30
  %177 = icmp ult ptr %175, %176
  br i1 %177, label %178, label %201

178:                                              ; preds = %174
  %179 = load i16, ptr %13, align 2, !tbaa !40
  %180 = icmp ne i16 %179, 0
  br i1 %180, label %181, label %200

181:                                              ; preds = %178
  %182 = load i16, ptr %13, align 2, !tbaa !40
  %183 = zext i16 %182 to i32
  %184 = icmp eq i32 %183, 13
  br i1 %184, label %185, label %190

185:                                              ; preds = %181
  %186 = load ptr, ptr %10, align 8, !tbaa !30
  %187 = load i16, ptr %186, align 2, !tbaa !40
  %188 = zext i16 %187 to i32
  %189 = icmp eq i32 %188, 10
  br label %190

190:                                              ; preds = %185, %181
  %191 = phi i1 [ false, %181 ], [ %189, %185 ]
  br i1 %191, label %192, label %200

192:                                              ; preds = %190
  %193 = load i32, ptr %9, align 4, !tbaa !31
  %194 = add nsw i32 %193, 1
  store i32 %194, ptr %9, align 4, !tbaa !31
  %195 = load ptr, ptr %10, align 8, !tbaa !30
  %196 = getelementptr inbounds nuw i16, ptr %195, i32 1
  store ptr %196, ptr %10, align 8, !tbaa !30
  %197 = load i16, ptr %195, align 2, !tbaa !40
  %198 = load ptr, ptr %12, align 8, !tbaa !30
  %199 = getelementptr inbounds nuw i16, ptr %198, i32 1
  store ptr %199, ptr %12, align 8, !tbaa !30
  store i16 %197, ptr %198, align 2, !tbaa !40
  br label %200

200:                                              ; preds = %192, %190, %178
  store i16 1, ptr %13, align 2, !tbaa !40
  br label %201

201:                                              ; preds = %200, %174
  %202 = load ptr, ptr %10, align 8, !tbaa !30
  %203 = load ptr, ptr %14, align 8, !tbaa !49
  %204 = getelementptr inbounds nuw %struct.u_localized_string, ptr %203, i32 0, i32 0
  store ptr %202, ptr %204, align 8, !tbaa !52
  %205 = load i16, ptr %13, align 2, !tbaa !40
  %206 = zext i16 %205 to i32
  %207 = icmp eq i32 %206, 1
  br i1 %207, label %208, label %209

208:                                              ; preds = %201
  br label %222

209:                                              ; preds = %201
  %210 = load ptr, ptr %7, align 8, !tbaa !3
  call void @_Z26ufile_fill_uchar_buffer_77P5UFILE(ptr noundef %210)
  %211 = load ptr, ptr %14, align 8, !tbaa !49
  %212 = getelementptr inbounds nuw %struct.u_localized_string, ptr %211, i32 0, i32 1
  %213 = load ptr, ptr %212, align 8, !tbaa !51
  %214 = load ptr, ptr %14, align 8, !tbaa !49
  %215 = getelementptr inbounds nuw %struct.u_localized_string, ptr %214, i32 0, i32 0
  %216 = load ptr, ptr %215, align 8, !tbaa !52
  %217 = ptrtoint ptr %213 to i64
  %218 = ptrtoint ptr %216 to i64
  %219 = sub i64 %217, %218
  %220 = sdiv exact i64 %219, 2
  %221 = trunc i64 %220 to i32
  store i32 %221, ptr %8, align 4, !tbaa !31
  br label %50, !llvm.loop !56

222:                                              ; preds = %208, %57
  %223 = load ptr, ptr %12, align 8, !tbaa !30
  store i16 0, ptr %223, align 2, !tbaa !40
  %224 = load ptr, ptr %5, align 8, !tbaa !30
  store ptr %224, ptr %4, align 8
  store i32 1, ptr %15, align 4
  br label %225

225:                                              ; preds = %222, %47, %18
  call void @llvm.lifetime.end.p0(i64 8, ptr %14) #10
  call void @llvm.lifetime.end.p0(i64 2, ptr %13) #10
  call void @llvm.lifetime.end.p0(i64 8, ptr %12) #10
  call void @llvm.lifetime.end.p0(i64 8, ptr %11) #10
  call void @llvm.lifetime.end.p0(i64 8, ptr %10) #10
  call void @llvm.lifetime.end.p0(i64 4, ptr %9) #10
  call void @llvm.lifetime.end.p0(i64 4, ptr %8) #10
  %226 = load ptr, ptr %4, align 8
  ret ptr %226
}