; Function Attrs: mustprogress uwtable
define noundef ptr @u_fgets_77(ptr noundef writeonly %0, i32 noundef %1, ptr noundef %2) local_unnamed_addr #0 {
  %4 = icmp slt i32 %1, 1
  br i1 %4, label %64, label %5

5:                                                ; preds = %3
  %6 = getelementptr inbounds nuw i8, ptr %2, i64 24
  %7 = load ptr, ptr %6, align 8, !tbaa !41
  %8 = getelementptr inbounds nuw i8, ptr %2, i64 32
  %9 = load ptr, ptr %8, align 8, !tbaa !40
  %.not = icmp ult ptr %7, %9
  br i1 %.not, label %11, label %10

10:                                               ; preds = %5
  tail call void @_Z26ufile_fill_uchar_buffer_77P5UFILE(ptr noundef nonnull %2)
  %.pre = load ptr, ptr %8, align 8, !tbaa !40
  %.pre126 = load ptr, ptr %6, align 8, !tbaa !41
  br label %11

11:                                               ; preds = %10, %5
  %12 = phi ptr [ %.pre126, %10 ], [ %7, %5 ]
  %13 = phi ptr [ %.pre, %10 ], [ %9, %5 ]
  %14 = add nsw i32 %1, -1
  %15 = ptrtoint ptr %13 to i64
  %16 = ptrtoint ptr %12 to i64
  %17 = sub i64 %15, %16
  %18 = lshr exact i64 %17, 1
  %19 = trunc i64 %18 to i32
  %20 = icmp eq i32 %19, 0
  br i1 %20, label %64, label %.preheader99

.preheader99:                                     ; preds = %11
  %21 = icmp sgt i32 %19, 0
  %22 = icmp ne i32 %1, 1
  %23 = and i1 %21, %22
  br i1 %23, label %.lr.ph112, label %.loopexit

.lr.ph112:                                        ; preds = %.preheader99, %53
  %24 = phi ptr [ %54, %53 ], [ %13, %.preheader99 ]
  %25 = phi ptr [ %55, %53 ], [ %12, %.preheader99 ]
  %.066111 = phi i16 [ %.1136146, %53 ], [ 0, %.preheader99 ]
  %.067110 = phi ptr [ %.269134147, %53 ], [ %0, %.preheader99 ]
  %.076109 = phi i32 [ %.177131149, %53 ], [ 0, %.preheader99 ]
  %.081108 = phi i32 [ %60, %53 ], [ %19, %.preheader99 ]
  %26 = sub nsw i32 %14, %.076109
  %27 = icmp slt i32 %.081108, %26
  %28 = sext i32 %26 to i64
  %29 = getelementptr inbounds i16, ptr %25, i64 %28
  %.071 = select i1 %27, ptr %24, ptr %29
  %.not90 = icmp eq i16 %.066111, 0
  %30 = icmp ult ptr %25, %.071
  %or.cond115 = select i1 %.not90, i1 %30, i1 false
  br i1 %or.cond115, label %.lr.ph, label %.critedge92

.lr.ph:                                           ; preds = %.lr.ph112, %34
  %.370105 = phi ptr [ %37, %34 ], [ %.067110, %.lr.ph112 ]
  %.173104 = phi ptr [ %36, %34 ], [ %25, %.lr.ph112 ]
  %.278103 = phi i32 [ %35, %34 ], [ %.076109, %.lr.ph112 ]
  %31 = load i16, ptr %.173104, align 2, !tbaa !38
  %32 = add i16 %31, -10
  %or.cond = icmp ult i16 %32, 4
  br i1 %or.cond, label %.critedge2, label %33

33:                                               ; preds = %.lr.ph
  switch i16 %31, label %34 [
    i16 133, label %.critedge2
    i16 8232, label %.critedge2
    i16 8233, label %.critedge2
  ]

34:                                               ; preds = %33
  %35 = add nsw i32 %.278103, 1
  %36 = getelementptr inbounds nuw i8, ptr %.173104, i64 2
  %37 = getelementptr inbounds nuw i8, ptr %.370105, i64 2
  store i16 %31, ptr %.370105, align 2, !tbaa !38
  %38 = icmp ult ptr %36, %.071
  br i1 %38, label %.lr.ph, label %.critedge4.thread141, !llvm.loop !44

.critedge2:                                       ; preds = %33, %33, %33, %.lr.ph
  %39 = icmp eq i16 %31, 13
  %. = select i1 %39, i16 13, i16 1
  %40 = add nsw i32 %.278103, 1
  %41 = getelementptr inbounds nuw i8, ptr %.173104, i64 2
  %42 = getelementptr inbounds nuw i8, ptr %.370105, i64 2
  store i16 %31, ptr %.370105, align 2, !tbaa !38
  br label %.critedge92

.critedge92:                                      ; preds = %.critedge2, %.lr.ph112
  %.177 = phi i32 [ %.076109, %.lr.ph112 ], [ %40, %.critedge2 ]
  %.072 = phi ptr [ %25, %.lr.ph112 ], [ %41, %.critedge2 ]
  %.269 = phi ptr [ %.067110, %.lr.ph112 ], [ %42, %.critedge2 ]
  %.1 = phi i16 [ %.066111, %.lr.ph112 ], [ %., %.critedge2 ]
  %43 = icmp ult ptr %.072, %.071
  br i1 %43, label %44, label %.critedge4

.critedge4.thread141:                             ; preds = %34
  store ptr %36, ptr %6, align 8, !tbaa !41
  br label %53

44:                                               ; preds = %.critedge92
  %45 = icmp eq i16 %.1, 13
  br i1 %45, label %46, label %.critedge4.thread

46:                                               ; preds = %44
  %47 = load i16, ptr %.072, align 2, !tbaa !38
  %48 = icmp eq i16 %47, 10
  br i1 %48, label %49, label %.critedge4.thread

49:                                               ; preds = %46
  %50 = getelementptr inbounds nuw i8, ptr %.072, i64 2
  %51 = getelementptr inbounds nuw i8, ptr %.269, i64 2
  store i16 10, ptr %.269, align 2, !tbaa !38
  br label %.critedge4.thread

.critedge4.thread:                                ; preds = %49, %46, %44
  %.274.ph = phi ptr [ %.072, %44 ], [ %.072, %46 ], [ %50, %49 ]
  %.4.ph = phi ptr [ %.269, %44 ], [ %.269, %46 ], [ %51, %49 ]
  store ptr %.274.ph, ptr %6, align 8, !tbaa !41
  br label %.loopexit

.critedge4:                                       ; preds = %.critedge92
  store ptr %.072, ptr %6, align 8, !tbaa !41
  %52 = icmp eq i16 %.1, 1
  br i1 %52, label %.loopexit, label %53

53:                                               ; preds = %.critedge4.thread141, %.critedge4
  %.177131149 = phi i32 [ %35, %.critedge4.thread141 ], [ %.177, %.critedge4 ]
  %.269134147 = phi ptr [ %37, %.critedge4.thread141 ], [ %.269, %.critedge4 ]
  %.1136146 = phi i16 [ 0, %.critedge4.thread141 ], [ %.1, %.critedge4 ]
  tail call void @_Z26ufile_fill_uchar_buffer_77P5UFILE(ptr noundef nonnull %2)
  %54 = load ptr, ptr %8, align 8, !tbaa !40
  %55 = load ptr, ptr %6, align 8, !tbaa !41
  %56 = ptrtoint ptr %54 to i64
  %57 = ptrtoint ptr %55 to i64
  %58 = sub i64 %56, %57
  %59 = lshr exact i64 %58, 1
  %60 = trunc i64 %59 to i32
  %61 = icmp sgt i32 %60, 0
  %62 = icmp slt i32 %.177131149, %14
  %63 = select i1 %61, i1 %62, i1 false
  br i1 %63, label %.lr.ph112, label %.loopexit, !llvm.loop !45

.loopexit:                                        ; preds = %53, %.critedge4, %.preheader99, %.critedge4.thread
  %.168 = phi ptr [ %.4.ph, %.critedge4.thread ], [ %0, %.preheader99 ], [ %.269134147, %53 ], [ %.269, %.critedge4 ]
  store i16 0, ptr %.168, align 2, !tbaa !38
  br label %64

64:                                               ; preds = %11, %3, %.loopexit
  %.0 = phi ptr [ %0, %.loopexit ], [ null, %3 ], [ null, %11 ]
  ret ptr %.0
}